target datalayout = "e-m:e-p270:32:32-p271:32:32-p272:64:64-i64:64-i128:128-f80:128-n8:16:32:64-S128"
target triple = "x86_64-pc-linux-gnu"

%struct.string_list = type { ptr, i64, i64, i8, ptr }
%struct.string_list_sort_ctx = type { ptr }

@.str = private unnamed_addr constant [14 x i8] c"string-list.c\00", align 1
@.str.3 = private unnamed_addr constant [17 x i8] c"qsort_s() failed\00", align 1

; Function Attrs: nounwind uwtable
define dso_local void @string_list_sort(ptr noundef %0) #0 {
  %2 = alloca ptr, align 8
  %3 = alloca %struct.string_list_sort_ctx, align 8
  store ptr %0, ptr %2, align 8, !tbaa !4
  call void @llvm.lifetime.start.p0(i64 8, ptr %3) #9
  %4 = getelementptr inbounds nuw %struct.string_list_sort_ctx, ptr %3, i32 0, i32 0
  %5 = load ptr, ptr %2, align 8, !tbaa !4
  %6 = getelementptr inbounds nuw %struct.string_list, ptr %5, i32 0, i32 4
  %7 = load ptr, ptr %6, align 8, !tbaa !24
  %8 = icmp ne ptr %7, null
  br i1 %8, label %9, label %13

9:                                                ; preds = %1
  %10 = load ptr, ptr %2, align 8, !tbaa !4
  %11 = getelementptr inbounds nuw %struct.string_list, ptr %10, i32 0, i32 4
  %12 = load ptr, ptr %11, align 8, !tbaa !24
  br label %14

13:                                               ; preds = %1
  br label %14

14:                                               ; preds = %13, %9
  %15 = phi ptr [ %12, %9 ], [ @strcmp, %13 ]
  store ptr %15, ptr %4, align 8, !tbaa !39
  br label %16

16:                                               ; preds = %14
  %17 = load ptr, ptr %2, align 8, !tbaa !4
  %18 = getelementptr inbounds nuw %struct.string_list, ptr %17, i32 0, i32 0
  %19 = load ptr, ptr %18, align 8, !tbaa !13
  %20 = load ptr, ptr %2, align 8, !tbaa !4
  %21 = getelementptr inbounds nuw %struct.string_list, ptr %20, i32 0, i32 1
  %22 = load i64, ptr %21, align 8, !tbaa !17
  %23 = call i32 @git_qsort_s(ptr noundef %19, i64 noundef %22, i64 noundef 16, ptr noundef @cmp_items, ptr noundef %3)
  %24 = icmp ne i32 %23, 0
  br i1 %24, label %25, label %26

25:                                               ; preds = %16
  call void (ptr, i32, ptr, ...) @BUG_fl(ptr noundef @.str, i32 noundef 256, ptr noundef @.str.3) #10
  unreachable

26:                                               ; preds = %16
  br label %27

27:                                               ; preds = %26
  br label %28

28:                                               ; preds = %27
  call void @llvm.lifetime.end.p0(i64 8, ptr %3) #9
  ret void
}