; Function Attrs: nounwind uwtable
define dso_local void @string_list_sort(ptr noundef readonly captures(none) %0) local_unnamed_addr #4 {
  %2 = alloca %struct.string_list_sort_ctx, align 8
  call void @llvm.lifetime.start.p0(i64 8, ptr nonnull %2) #11
  %3 = getelementptr inbounds nuw i8, ptr %0, i64 32
  %4 = load ptr, ptr %3, align 8, !tbaa !12
  %.not = icmp eq ptr %4, null
  %spec.select = select i1 %.not, ptr @strcmp, ptr %4
  store ptr %spec.select, ptr %2, align 8, !tbaa !32
  %5 = load ptr, ptr %0, align 8, !tbaa !13
  %6 = getelementptr inbounds nuw i8, ptr %0, i64 8
  %7 = load i64, ptr %6, align 8, !tbaa !4
  %8 = call i32 @git_qsort_s(ptr noundef %5, i64 noundef %7, i64 noundef 16, ptr noundef nonnull @cmp_items, ptr noundef nonnull %2) #11
  %.not4 = icmp eq i32 %8, 0
  br i1 %.not4, label %10, label %9

9:                                                ; preds = %1
  call void (ptr, i32, ptr, ...) @BUG_fl(ptr noundef nonnull @.str, i32 noundef 256, ptr noundef nonnull @.str.3) #12
  unreachable

10:                                               ; preds = %1
  call void @llvm.lifetime.end.p0(i64 8, ptr nonnull %2) #11
  ret void
}